; Function Attrs: nounwind sspstrong uwtable
define internal fastcc noundef ptr @new_qcall(ptr noundef captures(none) %0, i64 noundef %1, ptr noundef %2, i64 noundef %3, ptr noundef %4, ptr noundef nonnull readonly captures(none) %5, ptr noundef nonnull readonly captures(none) %6) unnamed_addr #0 {
  %8 = icmp eq i64 %1, 150
  %9 = getelementptr i8, ptr %0, i64 288
  %.val.i.i = load ptr, ptr %9, align 8, !tbaa !120
  %10 = getelementptr inbounds nuw i8, ptr %0, i64 296
  %. = select i1 %8, i32 40, i32 36
  %11 = tail call ptr @rb_ast_newnode(ptr noundef %.val.i.i, i32 noundef range(i32 0, 115) %., i64 noundef range(i64 32, 129) 56, i64 noundef 8) #31
  tail call void @rb_node_init(ptr noundef %11, i32 noundef range(i32 0, 115) %.) #31
  %12 = getelementptr inbounds nuw i8, ptr %11, i64 8
  tail call void @llvm.memcpy.p0.p0.i64(ptr noundef nonnull align 8 dereferenceable(16) %12, ptr noundef nonnull readonly align 4 dereferenceable(16) %6, i64 16, i1 false)
  %13 = load i32, ptr %6, align 4, !tbaa !51
  %14 = sext i32 %13 to i64
  %15 = load i64, ptr %11, align 8, !tbaa !61
  %16 = and i64 %15, 32767
  %17 = shl nsw i64 %14, 15
  %18 = or disjoint i64 %16, %17
  store i64 %18, ptr %11, align 8, !tbaa !61
  %19 = load i32, ptr %10, align 8, !tbaa !192
  %20 = add nsw i32 %19, 1
  store i32 %20, ptr %10, align 8, !tbaa !192
  %21 = getelementptr inbounds nuw i8, ptr %11, i64 24
  store i32 %19, ptr %21, align 8, !tbaa !193
  %22 = getelementptr inbounds nuw i8, ptr %11, i64 32
  store ptr %2, ptr %22, align 8, !tbaa !234
  %23 = getelementptr inbounds nuw i8, ptr %11, i64 40
  store i64 %3, ptr %23, align 8, !tbaa !9
  %24 = getelementptr inbounds nuw i8, ptr %11, i64 48
  store ptr %4, ptr %24, align 8, !tbaa !234
  %25 = load i32, ptr %5, align 4, !tbaa !51
  %26 = sext i32 %25 to i64
  %27 = shl nsw i64 %26, 15
  %28 = or disjoint i64 %16, %27
  store i64 %28, ptr %11, align 8, !tbaa !61
  ret ptr %11
}